; Function Attrs: nounwind uwtable
define internal noundef ptr @blob_close(ptr noundef captures(none) %0, ptr readnone captures(none) %1) #0 {
  %3 = getelementptr inbounds nuw i8, ptr %0, i64 16
  %4 = load ptr, ptr %3, align 8, !tbaa !39
  %5 = tail call i32 @pysqlite_check_connection(ptr noundef %4) #5
  %.not.i = icmp eq i32 %5, 0
  br i1 %.not.i, label %blob_close_impl.exit, label %6

6:                                                ; preds = %2
  %7 = load ptr, ptr %3, align 8, !tbaa !39
  %8 = tail call i32 @pysqlite_check_thread(ptr noundef %7) #5
  %.not4.i = icmp eq i32 %8, 0
  br i1 %.not4.i, label %blob_close_impl.exit, label %9

9:                                                ; preds = %6
  %10 = getelementptr inbounds nuw i8, ptr %0, i64 24
  %11 = load ptr, ptr %10, align 8, !tbaa !22
  %.not.i.i = icmp eq ptr %11, null
  br i1 %.not.i.i, label %blob_close_impl.exit, label %12

12:                                               ; preds = %9
  store ptr null, ptr %10, align 8, !tbaa !22
  %13 = tail call ptr @PyEval_SaveThread() #5
  %14 = tail call i32 @sqlite3_blob_close(ptr noundef nonnull %11) #5
  tail call void @PyEval_RestoreThread(ptr noundef %13) #5
  br label %blob_close_impl.exit

blob_close_impl.exit:                             ; preds = %2, %6, %9, %12
  %.0.i = phi ptr [ null, %6 ], [ null, %2 ], [ @_Py_NoneStruct, %9 ], [ @_Py_NoneStruct, %12 ]
  ret ptr %.0.i
}